target datalayout = "e-m:e-p270:32:32-p271:32:32-p272:64:64-i64:64-i128:128-f80:128-n8:16:32:64-S128"
target triple = "x86_64-pc-linux-gnu"

%struct._zend_posix_globals = type { i32 }
%struct._zend_executor_globals = type { %struct._zval_struct, %struct._zval_struct, [32 x ptr], ptr, ptr, %struct._zend_array, %struct._zend_array, ptr, i32, i32, ptr, ptr, ptr, ptr, ptr, ptr, i64, ptr, ptr, i32, i32, i64, i32, i32, i32, i8, i8, %struct.zend_atomic_bool_s, %struct.zend_atomic_bool_s, ptr, i64, ptr, ptr, %struct._zend_array, %struct._zend_array, i32, i8, %struct._zval_struct, %struct._zval_struct, %struct._zend_stack, %struct._zend_stack, %struct._zend_stack, ptr, i32, i32, i64, ptr, ptr, ptr, %struct._zend_objects_store, ptr, ptr, ptr, [3 x %struct._zend_op], ptr, i8, i8, i64, i32, i32, ptr, [16 x %struct._HashTableIterator], ptr, %union._zend_function, %struct._zend_op, %struct._zend_array, i64, %struct.zend_get_gc_buffer, ptr, ptr, ptr, i64, i8, i32, ptr, ptr, i64, %struct._zend_call_stack, i64, i64, [6 x ptr] }
%struct.zend_atomic_bool_s = type { i8 }
%struct._zval_struct = type { %union._zend_value, %union.anon, %union.anon.2 }
%union._zend_value = type { i64 }
%union.anon = type { i32 }
%union.anon.2 = type { i32 }
%struct._zend_stack = type { i32, i32, i32, ptr }
%struct._zend_objects_store = type { ptr, i32, i32, i32 }
%struct._HashTableIterator = type { ptr, i32, i32 }
%union._zend_function = type { %struct._zend_op_array }
%struct._zend_op_array = type { i8, [3 x i8], i32, ptr, ptr, ptr, i32, i32, ptr, ptr, ptr, ptr, i32, i32, i32, i32, ptr, ptr, ptr, ptr, ptr, i32, i32, ptr, ptr, ptr, i32, i32, i32, i32, ptr, ptr, [6 x ptr] }
%struct._zend_op = type { ptr, %union._znode_op, %union._znode_op, %union._znode_op, i32, i32, i8, i8, i8, i8 }
%union._znode_op = type { i32 }
%struct._zend_array = type { %struct._zend_refcounted_h, %union.anon.4, i32, %union.anon.6, i32, i32, i32, i32, i64, ptr }
%struct._zend_refcounted_h = type { i32, %union.anon.3 }
%union.anon.3 = type { i32 }
%union.anon.4 = type { i32 }
%union.anon.6 = type { ptr }
%struct.zend_get_gc_buffer = type { ptr, ptr, ptr }
%struct._zend_call_stack = type { ptr, i64 }
%struct._zend_execute_data = type { ptr, ptr, ptr, ptr, %struct._zval_struct, ptr, ptr, ptr, ptr }

@posix_globals = hidden global %struct._zend_posix_globals zeroinitializer, align 4
@executor_globals = external global %struct._zend_executor_globals, align 8
@.str.31 = private unnamed_addr constant [39 x i8] c"must be of type int|resource, %s given\00", align 1

; Function Attrs: nounwind uwtable
define hidden void @zif_posix_fpathconf(ptr noundef %0, ptr noundef %1) #0 {
  %3 = alloca ptr, align 8
  %4 = alloca ptr, align 8
  %5 = alloca i1, align 1
  %6 = alloca ptr, align 8
  %7 = alloca ptr, align 8
  %8 = alloca ptr, align 8
  %9 = alloca i8, align 1
  %10 = alloca i32, align 4
  %11 = alloca i8, align 1
  %12 = alloca ptr, align 8
  %13 = alloca ptr, align 8
  %14 = alloca i1, align 1
  %15 = alloca ptr, align 8
  %16 = alloca ptr, align 8
  %17 = alloca ptr, align 8
  %18 = alloca i8, align 1
  %19 = alloca i32, align 4
  %20 = alloca i8, align 1
  %21 = alloca ptr, align 8
  %22 = alloca ptr, align 8
  %23 = alloca ptr, align 8
  %24 = alloca ptr, align 8
  %25 = alloca i8, align 1
  %26 = alloca ptr, align 8
  %27 = alloca ptr, align 8
  %28 = alloca ptr, align 8
  %29 = alloca i8, align 1
  %30 = alloca i32, align 4
  %31 = alloca ptr, align 8
  %32 = alloca ptr, align 8
  %33 = alloca ptr, align 8
  %34 = alloca i8, align 1
  %35 = alloca i32, align 4
  %36 = alloca ptr, align 8
  %37 = alloca ptr, align 8
  %38 = alloca i64, align 8
  %39 = alloca i64, align 8
  %40 = alloca i64, align 8
  %41 = alloca ptr, align 8
  %42 = alloca i32, align 4
  %43 = alloca i32, align 4
  %44 = alloca i32, align 4
  %45 = alloca i32, align 4
  %46 = alloca i32, align 4
  %47 = alloca ptr, align 8
  %48 = alloca ptr, align 8
  %49 = alloca i32, align 4
  %50 = alloca ptr, align 8
  %51 = alloca i8, align 1
  %52 = alloca i8, align 1
  %53 = alloca i32, align 4
  %54 = alloca ptr, align 8
  store ptr %0, ptr %36, align 8
  store ptr %1, ptr %37, align 8
  store i64 0, ptr %40, align 8
  br label %55

55:                                               ; preds = %2
  store i32 0, ptr %42, align 4
  store i32 2, ptr %43, align 4
  store i32 2, ptr %44, align 4
  %56 = load ptr, ptr %36, align 8
  %57 = getelementptr inbounds %struct._zend_execute_data, ptr %56, i32 0, i32 4
  %58 = getelementptr inbounds %struct._zval_struct, ptr %57, i32 0, i32 2
  %59 = load i32, ptr %58, align 4
  store i32 %59, ptr %45, align 4
  store i32 0, ptr %46, align 4
  store ptr null, ptr %48, align 8
  store i32 0, ptr %49, align 4
  store ptr null, ptr %50, align 8
  store i8 0, ptr %51, align 1
  store i8 0, ptr %52, align 1
  store i32 0, ptr %53, align 4
  br label %60

60:                                               ; preds = %55
  %61 = load i32, ptr %45, align 4
  %62 = load i32, ptr %43, align 4
  %63 = icmp ult i32 %61, %62
  %64 = xor i1 %63, true
  %65 = xor i1 %64, true
  %66 = zext i1 %65 to i32
  %67 = sext i32 %66 to i64
  %68 = icmp ne i64 %67, 0
  br i1 %68, label %78, label %69

69:                                               ; preds = %60
  %70 = load i32, ptr %45, align 4
  %71 = load i32, ptr %44, align 4
  %72 = icmp ugt i32 %70, %71
  %73 = xor i1 %72, true
  %74 = xor i1 %73, true
  %75 = zext i1 %74 to i32
  %76 = sext i32 %75 to i64
  %77 = icmp ne i64 %76, 0
  br i1 %77, label %78, label %81

78:                                               ; preds = %69, %60
  %79 = load i32, ptr %43, align 4
  %80 = load i32, ptr %44, align 4
  call void @zend_wrong_parameters_count_error(i32 noundef %79, i32 noundef %80)
  store i32 1, ptr %53, align 4
  br label %247

81:                                               ; preds = %69
  %82 = load ptr, ptr %36, align 8
  %83 = getelementptr inbounds %struct._zval_struct, ptr %82, i64 4
  store ptr %83, ptr %47, align 8
  %84 = load i32, ptr %46, align 4
  %85 = add i32 %84, 1
  store i32 %85, ptr %46, align 4
  %86 = load i32, ptr %46, align 4
  %87 = load i32, ptr %43, align 4
  %88 = icmp ule i32 %86, %87
  br i1 %88, label %94, label %89

89:                                               ; preds = %81
  %90 = load i8, ptr %52, align 1
  %91 = trunc i8 %90 to i1
  %92 = zext i1 %91 to i32
  %93 = icmp eq i32 %92, 1
  br label %94

94:                                               ; preds = %89, %81
  %95 = phi i1 [ true, %81 ], [ %93, %89 ]
  call void @llvm.assume(i1 %95)
  %96 = load i32, ptr %46, align 4
  %97 = load i32, ptr %43, align 4
  %98 = icmp ugt i32 %96, %97
  br i1 %98, label %104, label %99

99:                                               ; preds = %94
  %100 = load i8, ptr %52, align 1
  %101 = trunc i8 %100 to i1
  %102 = zext i1 %101 to i32
  %103 = icmp eq i32 %102, 0
  br label %104

104:                                              ; preds = %99, %94
  %105 = phi i1 [ true, %94 ], [ %103, %99 ]
  call void @llvm.assume(i1 %105)
  %106 = load i8, ptr %52, align 1
  %107 = trunc i8 %106 to i1
  br i1 %107, label %108, label %119

108:                                              ; preds = %104
  %109 = load i32, ptr %46, align 4
  %110 = load i32, ptr %45, align 4
  %111 = icmp ugt i32 %109, %110
  %112 = xor i1 %111, true
  %113 = xor i1 %112, true
  %114 = zext i1 %113 to i32
  %115 = sext i32 %114 to i64
  %116 = icmp ne i64 %115, 0
  br i1 %116, label %117, label %118

117:                                              ; preds = %108
  br label %247

118:                                              ; preds = %108
  br label %119

119:                                              ; preds = %118, %104
  %120 = load ptr, ptr %47, align 8
  %121 = getelementptr inbounds %struct._zval_struct, ptr %120, i32 1
  store ptr %121, ptr %47, align 8
  %122 = load ptr, ptr %47, align 8
  store ptr %122, ptr %48, align 8
  %123 = load ptr, ptr %48, align 8
  store ptr %123, ptr %23, align 8
  store ptr %41, ptr %24, align 8
  store i8 0, ptr %25, align 1
  %124 = load i8, ptr %25, align 1
  %125 = trunc i8 %124 to i1
  br i1 %125, label %126, label %134

126:                                              ; preds = %119
  %127 = load ptr, ptr %23, align 8
  store ptr %127, ptr %22, align 8
  %128 = load ptr, ptr %22, align 8
  %129 = getelementptr inbounds %struct._zval_struct, ptr %128, i32 0, i32 1
  %130 = load i8, ptr %129, align 8
  %131 = zext i8 %130 to i32
  %132 = icmp eq i32 %131, 1
  br i1 %132, label %133, label %134

133:                                              ; preds = %126
  br label %136

134:                                              ; preds = %126, %119
  %135 = load ptr, ptr %23, align 8
  br label %136

136:                                              ; preds = %134, %133
  %137 = phi ptr [ null, %133 ], [ %135, %134 ]
  %138 = load ptr, ptr %24, align 8
  store ptr %137, ptr %138, align 8
  %139 = load i32, ptr %46, align 4
  %140 = add i32 %139, 1
  store i32 %140, ptr %46, align 4
  %141 = load i32, ptr %46, align 4
  %142 = load i32, ptr %43, align 4
  %143 = icmp ule i32 %141, %142
  br i1 %143, label %149, label %144

144:                                              ; preds = %136
  %145 = load i8, ptr %52, align 1
  %146 = trunc i8 %145 to i1
  %147 = zext i1 %146 to i32
  %148 = icmp eq i32 %147, 1
  br label %149

149:                                              ; preds = %144, %136
  %150 = phi i1 [ true, %136 ], [ %148, %144 ]
  call void @llvm.assume(i1 %150)
  %151 = load i32, ptr %46, align 4
  %152 = load i32, ptr %43, align 4
  %153 = icmp ugt i32 %151, %152
  br i1 %153, label %159, label %154

154:                                              ; preds = %149
  %155 = load i8, ptr %52, align 1
  %156 = trunc i8 %155 to i1
  %157 = zext i1 %156 to i32
  %158 = icmp eq i32 %157, 0
  br label %159

159:                                              ; preds = %154, %149
  %160 = phi i1 [ true, %149 ], [ %158, %154 ]
  call void @llvm.assume(i1 %160)
  %161 = load i8, ptr %52, align 1
  %162 = trunc i8 %161 to i1
  br i1 %162, label %163, label %174

163:                                              ; preds = %159
  %164 = load i32, ptr %46, align 4
  %165 = load i32, ptr %45, align 4
  %166 = icmp ugt i32 %164, %165
  %167 = xor i1 %166, true
  %168 = xor i1 %167, true
  %169 = zext i1 %168 to i32
  %170 = sext i32 %169 to i64
  %171 = icmp ne i64 %170, 0
  br i1 %171, label %172, label %173

172:                                              ; preds = %163
  br label %247

173:                                              ; preds = %163
  br label %174

174:                                              ; preds = %173, %159
  %175 = load ptr, ptr %47, align 8
  %176 = getelementptr inbounds %struct._zval_struct, ptr %175, i32 1
  store ptr %176, ptr %47, align 8
  %177 = load ptr, ptr %47, align 8
  store ptr %177, ptr %48, align 8
  %178 = load ptr, ptr %48, align 8
  %179 = load i32, ptr %46, align 4
  store ptr %178, ptr %26, align 8
  store ptr %38, ptr %27, align 8
  store ptr %51, ptr %28, align 8
  store i8 0, ptr %29, align 1
  store i32 %179, ptr %30, align 4
  %180 = load ptr, ptr %26, align 8
  %181 = load ptr, ptr %27, align 8
  %182 = load ptr, ptr %28, align 8
  %183 = load i8, ptr %29, align 1
  %184 = trunc i8 %183 to i1
  %185 = load i32, ptr %30, align 4
  store ptr %180, ptr %15, align 8
  store ptr %181, ptr %16, align 8
  store ptr %182, ptr %17, align 8
  %186 = zext i1 %184 to i8
  store i8 %186, ptr %18, align 1
  store i32 %185, ptr %19, align 4
  store i8 0, ptr %20, align 1
  %187 = load i8, ptr %18, align 1
  %188 = trunc i8 %187 to i1
  br i1 %188, label %189, label %191

189:                                              ; preds = %174
  %190 = load ptr, ptr %17, align 8
  store i8 0, ptr %190, align 1
  br label %191

191:                                              ; preds = %189, %174
  %192 = load ptr, ptr %15, align 8
  store ptr %192, ptr %12, align 8
  %193 = load ptr, ptr %12, align 8
  %194 = getelementptr inbounds %struct._zval_struct, ptr %193, i32 0, i32 1
  %195 = load i8, ptr %194, align 8
  %196 = zext i8 %195 to i32
  %197 = icmp eq i32 %196, 4
  br i1 %197, label %198, label %202

198:                                              ; preds = %191
  %199 = load ptr, ptr %15, align 8
  %200 = load i64, ptr %199, align 8
  %201 = load ptr, ptr %16, align 8
  store i64 %200, ptr %201, align 8
  br label %228

202:                                              ; preds = %191
  %203 = load i8, ptr %18, align 1
  %204 = trunc i8 %203 to i1
  br i1 %204, label %205, label %215

205:                                              ; preds = %202
  %206 = load ptr, ptr %15, align 8
  store ptr %206, ptr %13, align 8
  %207 = load ptr, ptr %13, align 8
  %208 = getelementptr inbounds %struct._zval_struct, ptr %207, i32 0, i32 1
  %209 = load i8, ptr %208, align 8
  %210 = zext i8 %209 to i32
  %211 = icmp eq i32 %210, 1
  br i1 %211, label %212, label %215

212:                                              ; preds = %205
  %213 = load ptr, ptr %17, align 8
  store i8 1, ptr %213, align 1
  %214 = load ptr, ptr %16, align 8
  store i64 0, ptr %214, align 8
  br label %228

215:                                              ; preds = %205, %202
  %216 = load i8, ptr %20, align 1
  %217 = trunc i8 %216 to i1
  br i1 %217, label %218, label %223

218:                                              ; preds = %215
  %219 = load ptr, ptr %15, align 8
  %220 = load ptr, ptr %16, align 8
  %221 = load i32, ptr %19, align 4
  %222 = call zeroext i1 @zend_flf_parse_arg_long_slow(ptr noundef %219, ptr noundef %220, i32 noundef %221) #9
  store i1 %222, ptr %14, align 1
  br label %229

223:                                              ; preds = %215
  %224 = load ptr, ptr %15, align 8
  %225 = load ptr, ptr %16, align 8
  %226 = load i32, ptr %19, align 4
  %227 = call zeroext i1 @zend_parse_arg_long_slow(ptr noundef %224, ptr noundef %225, i32 noundef %226) #9
  store i1 %227, ptr %14, align 1
  br label %229

228:                                              ; preds = %212, %198
  store i1 true, ptr %14, align 1
  br label %229

229:                                              ; preds = %228, %223, %218
  %230 = load i1, ptr %14, align 1
  %231 = xor i1 %230, true
  %232 = xor i1 %231, true
  %233 = xor i1 %232, true
  %234 = zext i1 %233 to i32
  %235 = sext i32 %234 to i64
  %236 = icmp ne i64 %235, 0
  br i1 %236, label %237, label %238

237:                                              ; preds = %229
  store i32 0, ptr %49, align 4
  store i32 9, ptr %53, align 4
  br label %247

238:                                              ; preds = %229
  %239 = load i32, ptr %46, align 4
  %240 = load i32, ptr %44, align 4
  %241 = icmp eq i32 %239, %240
  br i1 %241, label %245, label %242

242:                                              ; preds = %238
  %243 = load i32, ptr %44, align 4
  %244 = icmp eq i32 %243, -1
  br label %245

245:                                              ; preds = %242, %238
  %246 = phi i1 [ true, %238 ], [ %244, %242 ]
  call void @llvm.assume(i1 %246)
  br label %247

247:                                              ; preds = %245, %237, %172, %117, %78
  %248 = load i32, ptr %53, align 4
  %249 = icmp ne i32 %248, 0
  %250 = xor i1 %249, true
  %251 = xor i1 %250, true
  %252 = zext i1 %251 to i32
  %253 = sext i32 %252 to i64
  %254 = icmp ne i64 %253, 0
  br i1 %254, label %255, label %261

255:                                              ; preds = %247
  %256 = load i32, ptr %53, align 4
  %257 = load i32, ptr %46, align 4
  %258 = load ptr, ptr %50, align 8
  %259 = load i32, ptr %49, align 4
  %260 = load ptr, ptr %48, align 8
  call void @zend_wrong_parameter_error(i32 noundef %256, i32 noundef %257, ptr noundef %258, i32 noundef %259, ptr noundef %260)
  br label %373

261:                                              ; preds = %247
  br label %262

262:                                              ; preds = %261
  %263 = load ptr, ptr %41, align 8
  store ptr %263, ptr %21, align 8
  %264 = load ptr, ptr %21, align 8
  %265 = getelementptr inbounds %struct._zval_struct, ptr %264, i32 0, i32 1
  %266 = load i8, ptr %265, align 8
  %267 = zext i8 %266 to i32
  %268 = icmp eq i32 %267, 9
  br i1 %268, label %269, label %281

269:                                              ; preds = %262
  %270 = load ptr, ptr %41, align 8
  %271 = call i32 @php_posix_stream_get_fd(ptr noundef %270, ptr noundef %40)
  %272 = icmp ne i32 %271, 0
  br i1 %272, label %280, label %273

273:                                              ; preds = %269
  br label %274

274:                                              ; preds = %273
  br label %275

275:                                              ; preds = %274
  %276 = load ptr, ptr %37, align 8
  %277 = getelementptr inbounds %struct._zval_struct, ptr %276, i32 0, i32 1
  store i32 2, ptr %277, align 8
  br label %278

278:                                              ; preds = %275
  br label %373

279:                                              ; No predecessors!
  br label %280

280:                                              ; preds = %279, %269
  br label %342

281:                                              ; preds = %262
  %282 = load ptr, ptr %41, align 8
  store ptr %282, ptr %31, align 8
  store ptr %40, ptr %32, align 8
  store ptr null, ptr %33, align 8
  store i8 0, ptr %34, align 1
  store i32 1, ptr %35, align 4
  %283 = load ptr, ptr %31, align 8
  %284 = load ptr, ptr %32, align 8
  %285 = load ptr, ptr %33, align 8
  %286 = load i8, ptr %34, align 1
  %287 = trunc i8 %286 to i1
  %288 = load i32, ptr %35, align 4
  store ptr %283, ptr %6, align 8
  store ptr %284, ptr %7, align 8
  store ptr %285, ptr %8, align 8
  %289 = zext i1 %287 to i8
  store i8 %289, ptr %9, align 1
  store i32 %288, ptr %10, align 4
  store i8 0, ptr %11, align 1
  %290 = load i8, ptr %9, align 1
  %291 = trunc i8 %290 to i1
  br i1 %291, label %292, label %294

292:                                              ; preds = %281
  %293 = load ptr, ptr %8, align 8
  store i8 0, ptr %293, align 1
  br label %294

294:                                              ; preds = %292, %281
  %295 = load ptr, ptr %6, align 8
  store ptr %295, ptr %3, align 8
  %296 = load ptr, ptr %3, align 8
  %297 = getelementptr inbounds %struct._zval_struct, ptr %296, i32 0, i32 1
  %298 = load i8, ptr %297, align 8
  %299 = zext i8 %298 to i32
  %300 = icmp eq i32 %299, 4
  br i1 %300, label %301, label %305

301:                                              ; preds = %294
  %302 = load ptr, ptr %6, align 8
  %303 = load i64, ptr %302, align 8
  %304 = load ptr, ptr %7, align 8
  store i64 %303, ptr %304, align 8
  br label %331

305:                                              ; preds = %294
  %306 = load i8, ptr %9, align 1
  %307 = trunc i8 %306 to i1
  br i1 %307, label %308, label %318

308:                                              ; preds = %305
  %309 = load ptr, ptr %6, align 8
  store ptr %309, ptr %4, align 8
  %310 = load ptr, ptr %4, align 8
  %311 = getelementptr inbounds %struct._zval_struct, ptr %310, i32 0, i32 1
  %312 = load i8, ptr %311, align 8
  %313 = zext i8 %312 to i32
  %314 = icmp eq i32 %313, 1
  br i1 %314, label %315, label %318

315:                                              ; preds = %308
  %316 = load ptr, ptr %8, align 8
  store i8 1, ptr %316, align 1
  %317 = load ptr, ptr %7, align 8
  store i64 0, ptr %317, align 8
  br label %331

318:                                              ; preds = %308, %305
  %319 = load i8, ptr %11, align 1
  %320 = trunc i8 %319 to i1
  br i1 %320, label %321, label %326

321:                                              ; preds = %318
  %322 = load ptr, ptr %6, align 8
  %323 = load ptr, ptr %7, align 8
  %324 = load i32, ptr %10, align 4
  %325 = call zeroext i1 @zend_flf_parse_arg_long_slow(ptr noundef %322, ptr noundef %323, i32 noundef %324) #9
  store i1 %325, ptr %5, align 1
  br label %332

326:                                              ; preds = %318
  %327 = load ptr, ptr %6, align 8
  %328 = load ptr, ptr %7, align 8
  %329 = load i32, ptr %10, align 4
  %330 = call zeroext i1 @zend_parse_arg_long_slow(ptr noundef %327, ptr noundef %328, i32 noundef %329) #9
  store i1 %330, ptr %5, align 1
  br label %332

331:                                              ; preds = %315, %301
  store i1 true, ptr %5, align 1
  br label %332

332:                                              ; preds = %331, %326, %321
  %333 = load i1, ptr %5, align 1
  br i1 %333, label %341, label %334

334:                                              ; preds = %332
  %335 = load ptr, ptr %41, align 8
  %336 = call ptr @zend_zval_value_name(ptr noundef %335)
  call void (i32, ptr, ...) @zend_argument_type_error(i32 noundef 1, ptr noundef @.str.31, ptr noundef %336)
  br label %337

337:                                              ; preds = %334
  %338 = load ptr, ptr getelementptr inbounds (%struct._zend_executor_globals, ptr @executor_globals, i32 0, i32 50), align 8
  %339 = icmp ne ptr %338, null
  call void @llvm.assume(i1 %339)
  br label %373

340:                                              ; No predecessors!
  br label %341

341:                                              ; preds = %340, %332
  br label %342

342:                                              ; preds = %341, %280
  %343 = load i64, ptr %40, align 8
  %344 = trunc i64 %343 to i32
  %345 = load i64, ptr %38, align 8
  %346 = trunc i64 %345 to i32
  %347 = call i64 @fpathconf(i32 noundef %344, i32 noundef %346) #9
  store i64 %347, ptr %39, align 8
  %348 = load i64, ptr %39, align 8
  %349 = icmp slt i64 %348, 0
  br i1 %349, label %350, label %363

350:                                              ; preds = %342
  %351 = call ptr @__errno_location() #10
  %352 = load i32, ptr %351, align 4
  %353 = icmp ne i32 %352, 0
  br i1 %353, label %354, label %363

354:                                              ; preds = %350
  %355 = call ptr @__errno_location() #10
  %356 = load i32, ptr %355, align 4
  store i32 %356, ptr @posix_globals, align 4
  br label %357

357:                                              ; preds = %354
  br label %358

358:                                              ; preds = %357
  %359 = load ptr, ptr %37, align 8
  %360 = getelementptr inbounds %struct._zval_struct, ptr %359, i32 0, i32 1
  store i32 2, ptr %360, align 8
  br label %361

361:                                              ; preds = %358
  br label %373

362:                                              ; No predecessors!
  br label %363

363:                                              ; preds = %362, %350, %342
  br label %364

364:                                              ; preds = %363
  br label %365

365:                                              ; preds = %364
  %366 = load ptr, ptr %37, align 8
  store ptr %366, ptr %54, align 8
  %367 = load i64, ptr %39, align 8
  %368 = load ptr, ptr %54, align 8
  %369 = getelementptr inbounds %struct._zval_struct, ptr %368, i32 0, i32 0
  store i64 %367, ptr %369, align 8
  %370 = load ptr, ptr %54, align 8
  %371 = getelementptr inbounds %struct._zval_struct, ptr %370, i32 0, i32 1
  store i32 4, ptr %371, align 8
  br label %372

372:                                              ; preds = %365
  br label %373

373:                                              ; preds = %372, %361, %337, %278, %255
  ret void
}