; Function Attrs: nounwind uwtable
define hidden void @zif_posix_fpathconf(ptr noundef %0, ptr nocapture noundef writeonly %1) #0 {
  %3 = alloca i64, align 8
  %4 = alloca i64, align 8
  store i64 0, ptr %4, align 8
  %5 = getelementptr inbounds i8, ptr %0, i64 44
  %6 = load i32, ptr %5, align 4
  %.not = icmp eq i32 %6, 2
  br i1 %.not, label %7, label %.thread137

7:                                                ; preds = %2
  %8 = getelementptr inbounds i8, ptr %0, i64 80
  %9 = getelementptr inbounds i8, ptr %0, i64 96
  %10 = getelementptr inbounds i8, ptr %0, i64 104
  %11 = load i8, ptr %10, align 8
  %12 = icmp eq i8 %11, 4
  br i1 %12, label %.thread125, label %14

.thread125:                                       ; preds = %7
  %13 = load i64, ptr %9, align 8
  store i64 %13, ptr %3, align 8
  br label %.thread146

14:                                               ; preds = %7
  %15 = call zeroext i1 @zend_parse_arg_long_slow(ptr noundef nonnull %9, ptr noundef nonnull %3, i32 noundef 2) #11
  %.fr = freeze i1 %15
  br i1 %.fr, label %.thread146, label %16

.thread137:                                       ; preds = %2
  tail call void @zend_wrong_parameters_count_error(i32 noundef 2, i32 noundef 2) #11
  br label %16

16:                                               ; preds = %14, %.thread137
  %.0104145 = phi i32 [ 1, %.thread137 ], [ 9, %14 ]
  %.0106144 = phi i32 [ 0, %.thread137 ], [ 2, %14 ]
  %.0108143 = phi ptr [ null, %.thread137 ], [ %9, %14 ]
  call void @zend_wrong_parameter_error(i32 noundef %.0104145, i32 noundef %.0106144, ptr noundef null, i32 noundef 0, ptr noundef %.0108143) #11
  br label %44

.thread146:                                       ; preds = %14, %.thread125
  %17 = getelementptr inbounds i8, ptr %0, i64 88
  %18 = load i8, ptr %17, align 8
  switch i8 %18, label %24 [
    i8 9, label %19
    i8 4, label %.critedge
  ]

19:                                               ; preds = %.thread146
  %20 = call fastcc i32 @php_posix_stream_get_fd(ptr noundef nonnull %8, ptr noundef nonnull %4), !range !4
  %.not118 = icmp eq i32 %20, 0
  br i1 %.not118, label %21, label %30

21:                                               ; preds = %19
  %22 = getelementptr inbounds i8, ptr %1, i64 8
  store i32 2, ptr %22, align 8
  br label %44

.critedge:                                        ; preds = %.thread146
  %23 = load i64, ptr %8, align 8
  store i64 %23, ptr %4, align 8
  br label %30

24:                                               ; preds = %.thread146
  %25 = call zeroext i1 @zend_parse_arg_long_slow(ptr noundef nonnull %8, ptr noundef nonnull %4, i32 noundef 1) #11
  br i1 %25, label %30, label %26

26:                                               ; preds = %24
  %27 = call ptr @zend_zval_value_name(ptr noundef nonnull %8) #11
  call void (i32, ptr, ...) @zend_argument_type_error(i32 noundef 1, ptr noundef nonnull @.str.31, ptr noundef %27) #11
  %28 = load ptr, ptr getelementptr inbounds (%struct._zend_executor_globals, ptr @executor_globals, i64 0, i32 50), align 8
  %29 = icmp ne ptr %28, null
  call void @llvm.assume(i1 %29)
  br label %44

30:                                               ; preds = %.critedge, %24, %19
  %31 = load i64, ptr %4, align 8
  %32 = trunc i64 %31 to i32
  %33 = load i64, ptr %3, align 8
  %34 = trunc i64 %33 to i32
  %35 = call i64 @fpathconf(i32 noundef %32, i32 noundef %34) #11
  %36 = icmp slt i64 %35, 0
  br i1 %36, label %37, label %42

37:                                               ; preds = %30
  %38 = tail call ptr @__errno_location() #12
  %39 = load i32, ptr %38, align 4
  %.not119 = icmp eq i32 %39, 0
  br i1 %.not119, label %42, label %40

40:                                               ; preds = %37
  store i32 %39, ptr @posix_globals, align 4
  %41 = getelementptr inbounds i8, ptr %1, i64 8
  store i32 2, ptr %41, align 8
  br label %44

42:                                               ; preds = %37, %30
  store i64 %35, ptr %1, align 8
  %43 = getelementptr inbounds i8, ptr %1, i64 8
  store i32 4, ptr %43, align 8
  br label %44

44:                                               ; preds = %42, %40, %26, %21, %16
  ret void
}